; ModuleID = '28/225.c'
source_filename = "28/225.c"
target datalayout = "e-m:e-p270:32:32-p271:32:32-p272:64:64-i64:64-f80:128-n8:16:32:64-S128"
target triple = "x86_64-pc-linux-gnu"

@.str = private unnamed_addr constant [3 x i8] c"%d\00", align 1
@.str.1 = private unnamed_addr constant [4 x i8] c",%d\00", align 1

; Function Attrs: noinline nounwind uwtable
define dso_local void @main() #0 {
  %1 = alloca [10000 x i8], align 16
  %2 = alloca [50 x i8], align 16
  %3 = alloca i32, align 4
  %4 = alloca i32, align 4
  %5 = alloca i32, align 4
  %6 = alloca i32, align 4
  %7 = alloca i32, align 4
  %8 = bitcast [10000 x i8]* %1 to i8*
  call void @llvm.memset.p0i8.i64(i8* align 16 %8, i8 0, i64 10000, i1 false)
  %9 = bitcast [50 x i8]* %2 to i8*
  call void @llvm.memset.p0i8.i64(i8* align 16 %9, i8 0, i64 50, i1 false)
  store i32 0, i32* %3, align 4
  store i32 0, i32* %5, align 4
  store i32 0, i32* %6, align 4
  store i32 0, i32* %7, align 4
  %10 = getelementptr inbounds [10000 x i8], [10000 x i8]* %1, i64 0, i64 0
  %11 = call i32 (i8*, ...) bitcast (i32 (...)* @gets to i32 (i8*, ...)*)(i8* %10)
  store i32 0, i32* %4, align 4
  br label %12

12:                                               ; preds = %81, %0
  %13 = load i32, i32* %5, align 4
  %14 = sext i32 %13 to i64
  %15 = getelementptr inbounds [10000 x i8], [10000 x i8]* %1, i64 0, i64 %14
  %16 = load i8, i8* %15, align 1
  %17 = icmp ne i8 %16, 0
  br i1 %17, label %18, label %84

18:                                               ; preds = %12
  %19 = load i32, i32* %5, align 4
  %20 = sext i32 %19 to i64
  %21 = getelementptr inbounds [10000 x i8], [10000 x i8]* %1, i64 0, i64 %20
  %22 = load i8, i8* %21, align 1
  %23 = sext i8 %22 to i32
  %24 = icmp ne i32 %23, 32
  br i1 %24, label %25, label %34

25:                                               ; preds = %18
  store i32 0, i32* %4, align 4
  br i1 false, label %26, label %34

26:                                               ; preds = %25
  %27 = load i32, i32* %5, align 4
  %28 = sext i32 %27 to i64
  %29 = getelementptr inbounds [10000 x i8], [10000 x i8]* %1, i64 0, i64 %28
  %30 = load i8, i8* %29, align 1
  %31 = load i32, i32* %6, align 4
  %32 = sext i32 %31 to i64
  %33 = getelementptr inbounds [50 x i8], [50 x i8]* %2, i64 0, i64 %32
  store i8 %30, i8* %33, align 1
  store i32 1, i32* %4, align 4
  br label %81

34:                                               ; preds = %25, %18
  %35 = load i32, i32* %5, align 4
  %36 = sext i32 %35 to i64
  %37 = getelementptr inbounds [10000 x i8], [10000 x i8]* %1, i64 0, i64 %36
  %38 = load i8, i8* %37, align 1
  %39 = sext i8 %38 to i32
  %40 = icmp ne i32 %39, 32
  br i1 %40, label %41, label %52

41:                                               ; preds = %34
  store i32 1, i32* %4, align 4
  br i1 true, label %42, label %52

42:                                               ; preds = %41
  %43 = load i32, i32* %6, align 4
  %44 = add nsw i32 %43, 1
  store i32 %44, i32* %6, align 4
  %45 = load i32, i32* %5, align 4
  %46 = sext i32 %45 to i64
  %47 = getelementptr inbounds [10000 x i8], [10000 x i8]* %1, i64 0, i64 %46
  %48 = load i8, i8* %47, align 1
  %49 = load i32, i32* %6, align 4
  %50 = sext i32 %49 to i64
  %51 = getelementptr inbounds [50 x i8], [50 x i8]* %2, i64 0, i64 %50
  store i8 %48, i8* %51, align 1
  store i32 1, i32* %4, align 4
  br label %80

52:                                               ; preds = %41, %34
  %53 = load i32, i32* %5, align 4
  %54 = sext i32 %53 to i64
  %55 = getelementptr inbounds [10000 x i8], [10000 x i8]* %1, i64 0, i64 %54
  %56 = load i8, i8* %55, align 1
  %57 = sext i8 %56 to i32
  %58 = icmp eq i32 %57, 32
  br i1 %58, label %59, label %79

59:                                               ; preds = %52
  %60 = load i32, i32* %7, align 4
  %61 = icmp eq i32 %60, 0
  br i1 %61, label %62, label %68

62:                                               ; preds = %59
  %63 = load i32, i32* %4, align 4
  %64 = icmp eq i32 %63, 1
  br i1 %64, label %65, label %68

65:                                               ; preds = %62
  %66 = load i32, i32* %6, align 4
  %67 = call i32 (i8*, ...) @printf(i8* getelementptr inbounds ([3 x i8], [3 x i8]* @.str, i64 0, i64 0), i32 %66)
  br label %78

68:                                               ; preds = %62, %59
  %69 = load i32, i32* %7, align 4
  %70 = icmp eq i32 %69, 1
  br i1 %70, label %71, label %77

71:                                               ; preds = %68
  %72 = load i32, i32* %4, align 4
  %73 = icmp eq i32 %72, 1
  br i1 %73, label %74, label %77

74:                                               ; preds = %71
  %75 = load i32, i32* %6, align 4
  %76 = call i32 (i8*, ...) @printf(i8* getelementptr inbounds ([4 x i8], [4 x i8]* @.str.1, i64 0, i64 0), i32 %75)
  br label %77

77:                                               ; preds = %74, %71, %68
  br label %78

78:                                               ; preds = %77, %65
  store i32 0, i32* %4, align 4
  store i32 1, i32* %7, align 4
  store i32 0, i32* %6, align 4
  br label %79

79:                                               ; preds = %78, %52
  br label %80

80:                                               ; preds = %79, %42
  br label %81

81:                                               ; preds = %80, %26
  %82 = load i32, i32* %5, align 4
  %83 = add nsw i32 %82, 1
  store i32 %83, i32* %5, align 4
  br label %12

84:                                               ; preds = %12
  %85 = load i32, i32* %7, align 4
  %86 = icmp eq i32 %85, 0
  br i1 %86, label %87, label %93

87:                                               ; preds = %84
  %88 = load i32, i32* %4, align 4
  %89 = icmp eq i32 %88, 1
  br i1 %89, label %90, label %93

90:                                               ; preds = %87
  %91 = load i32, i32* %6, align 4
  %92 = call i32 (i8*, ...) @printf(i8* getelementptr inbounds ([3 x i8], [3 x i8]* @.str, i64 0, i64 0), i32 %91)
  br label %103

93:                                               ; preds = %87, %84
  %94 = load i32, i32* %7, align 4
  %95 = icmp eq i32 %94, 1
  br i1 %95, label %96, label %102

96:                                               ; preds = %93
  %97 = load i32, i32* %4, align 4
  %98 = icmp eq i32 %97, 1
  br i1 %98, label %99, label %102

99:                                               ; preds = %96
  %100 = load i32, i32* %6, align 4
  %101 = call i32 (i8*, ...) @printf(i8* getelementptr inbounds ([4 x i8], [4 x i8]* @.str.1, i64 0, i64 0), i32 %100)
  br label %102

102:                                              ; preds = %99, %96, %93
  br label %103

103:                                              ; preds = %102, %90
  ret void
}

; Function Attrs: argmemonly nounwind willreturn
declare void @llvm.memset.p0i8.i64(i8* nocapture writeonly, i8, i64, i1 immarg) #1

declare dso_local i32 @gets(...) #2

declare dso_local i32 @printf(i8*, ...) #2


!llvm.module.flags = !{!0}
!llvm.ident = !{!1}

!0 = !{i32 1, !"wchar_size", i32 4}
!1 = !{!"clang version 10.0.0-4ubuntu1 "}
